(iCreateFuelStructure
CreateFuelStructure
p0
(dp1
S'identify'
p2
(iCreateFuelStructure
CreateIdentifyStructure
p3
(dp4
S'linelist'
p5
g5
sS'lgfile'
p6
S'/Volumes/DanaExternalMacbook/PhD_Thesis/SAMOS_Project/SAMOS_pipeline/jupyterNB_tutorial/logfile'
p7
sS'db'
p8
S'/Volumes/DanaExternalMacbook/PhD_Thesis/SAMOS_Project/SAMOS_pipeline/jupyterNB_tutorial/database'
p9
sS'linelist_ext'
p10
S'linelist_full'
p11
sbsS'util'
p12
(iCreateFuelStructure
CreateUtilStructure
p13
(dp14
S'science'
p15
(iCreateFuelStructure
CreateFuelLoadfiles
p16
(dp17
S'transf_files'
p18
S''
p19
sS'master_file'
p20
g19
sS'raw_files'
p21
(S'/Volumes/DanaExternalMacbook/PhD_Thesis/SAMOS_Project/SAMOS_pipeline/LDSS3/2017-11-30/ccd8157c1.fits'
p22
S'/Volumes/DanaExternalMacbook/PhD_Thesis/SAMOS_Project/SAMOS_pipeline/LDSS3/2017-11-30/ccd8157c2.fits'
p23
S'/Volumes/DanaExternalMacbook/PhD_Thesis/SAMOS_Project/SAMOS_pipeline/LDSS3/2017-11-30/ccd8158c1.fits'
p24
S'/Volumes/DanaExternalMacbook/PhD_Thesis/SAMOS_Project/SAMOS_pipeline/LDSS3/2017-11-30/ccd8158c2.fits'
p25
tp26
sS'corr_files'
p27
g19
sS'n_frames'
p28
I4
sbsS'intermediate_dir'
p29
S'/Volumes/DanaExternalMacbook/PhD_Thesis/SAMOS_Project/SAMOS_pipeline/LMask2/intermediates'
p30
sS'arc'
p31
(iCreateFuelStructure
CreateFuelLoadfiles
p32
(dp33
g18
g19
sg20
S'/Volumes/DanaExternalMacbook/PhD_Thesis/SAMOS_Project/SAMOS_pipeline/LMask2/master_arc.fits'
p34
sg21
(S'/Volumes/DanaExternalMacbook/PhD_Thesis/SAMOS_Project/SAMOS_pipeline/LDSS3/2017-11-30/ccd8159c1.fits'
p35
S'/Volumes/DanaExternalMacbook/PhD_Thesis/SAMOS_Project/SAMOS_pipeline/LDSS3/2017-11-30/ccd8159c2.fits'
p36
S'/Volumes/DanaExternalMacbook/PhD_Thesis/SAMOS_Project/SAMOS_pipeline/LDSS3/2017-11-30/ccd8160c1.fits'
p37
S'/Volumes/DanaExternalMacbook/PhD_Thesis/SAMOS_Project/SAMOS_pipeline/LDSS3/2017-11-30/ccd8160c2.fits'
p38
tp39
sg27
g19
sg28
I4
sbsS'field'
p40
(iCreateFuelStructure
CreateFuelLoadfiles
p41
(dp42
g18
g19
sg20
g19
sg21
(S'/Volumes/DanaExternalMacbook/PhD_Thesis/SAMOS_Project/SAMOS_pipeline/LDSS3/2017-11-30/ccd8152c1.fits'
p43
S'/Volumes/DanaExternalMacbook/PhD_Thesis/SAMOS_Project/SAMOS_pipeline/LDSS3/2017-11-30/ccd8152c2.fits'
p44
tp45
sg27
g19
sg28
I2
sbsS'slitflat'
p46
(iCreateFuelStructure
CreateFuelLoadfiles
p47
(dp48
g18
g19
sg20
S'/Volumes/DanaExternalMacbook/PhD_Thesis/SAMOS_Project/SAMOS_pipeline/LMask2/master_slitflat.fits'
p49
sg21
(S'/Volumes/DanaExternalMacbook/PhD_Thesis/SAMOS_Project/SAMOS_pipeline/LDSS3/2017-11-30/ccd8161c1.fits'
p50
S'/Volumes/DanaExternalMacbook/PhD_Thesis/SAMOS_Project/SAMOS_pipeline/LDSS3/2017-11-30/ccd8161c2.fits'
p51
S'/Volumes/DanaExternalMacbook/PhD_Thesis/SAMOS_Project/SAMOS_pipeline/LDSS3/2017-11-30/ccd8162c1.fits'
p52
S'/Volumes/DanaExternalMacbook/PhD_Thesis/SAMOS_Project/SAMOS_pipeline/LDSS3/2017-11-30/ccd8162c2.fits'
p53
S'/Volumes/DanaExternalMacbook/PhD_Thesis/SAMOS_Project/SAMOS_pipeline/LDSS3/2017-11-30/ccd8163c1.fits'
p54
S'/Volumes/DanaExternalMacbook/PhD_Thesis/SAMOS_Project/SAMOS_pipeline/LDSS3/2017-11-30/ccd8163c2.fits'
p55
tp56
sg27
g19
sg28
I6
sbsbsS'instrument'
p57
(iInitializeSAMOS
InitializeSAMOSInstrument
p58
(dp59
S'default_dark'
p60
g19
sS'default_pixelflat'
p61
g19
sS'gr_angle'
p62
g19
sS'dewar'
p63
g19
sS'linear_disp'
p64
F1.175
sS'd_alignrot'
p65
g19
sS'linearity_correction'
p66
(lp67
F0.0
aF1.0
aF4e-06
asS'dref'
p68
F0.0
sg57
S'LDSS3-C'
p69
sS'epoch'
p70
F2017.91567
sS'camera'
p71
g19
sS'scale_arc_per_mm'
p72
F12.6
sS'default_badpixel_mask'
p73
S'/Volumes/DanaExternalMacbook/PhD_Thesis/SAMOS_Project/SAMOS_pipeline/LDSS3/2017-11-30/SITE2'
p74
sS'ns'
p75
g19
sS'resolution_slit1arcsec'
p76
F0.0
sS'central_wavelength'
p77
I8000
sS'default_arc'
p78
g19
sS'pixel_scale'
p79
F0.188
sS'dewoff'
p80
g19
sS'default_illumflat'
p81
g19
sS'date'
p82
S'2017-12-01'
p83
sS'celestial_dec'
p84
S'-57:46:36.62'
p85
sS'hangle'
p86
F0.0
sS'temp'
p87
F20.0
sS'gr_order'
p88
g19
sS'mask'
p89
g19
sS'filter'
p90
S'OG590'
p91
sS'mode'
p92
g19
sS'trim_edges'
p93
F4.0
sS'readnoise'
p94
F4.67
sS'resolution'
p95
I1810
sS'grism'
p96
S'VPH-Red'
p97
sS'celestial_ra'
p98
S'06:15:51.721'
p99
sS'gain'
p100
g19
sbsS'slits'
p101
(lp102
sS'fuelsave_dir'
p103
S'/Volumes/DanaExternalMacbook/PhD_Thesis/SAMOS_Project/SAMOS_pipeline/stored_LMask2'
p104
sS'input'
p105
(iCreateInput
CreateInput
p106
(dp107
S'field_filelist'
p108
g45
sS'arc_filelist'
p109
g39
sS'working_dir'
p110
S'/Volumes/DanaExternalMacbook/PhD_Thesis/SAMOS_Project/SAMOS_pipeline'
p111
sS'mask_SMF'
p112
S'/Volumes/DanaExternalMacbook/PhD_Thesis/SAMOS_Project/SAMOS_pipeline/helper_files/LMask2.SMF'
p113
sS'slit_position_file'
p114
S'/Volumes/DanaExternalMacbook/PhD_Thesis/SAMOS_Project/SAMOS_pipeline/helper_files/LMask2_ycoords.txt'
p115
sS'slit_mask'
p116
S'/Volumes/DanaExternalMacbook/PhD_Thesis/SAMOS_Project/SAMOS_pipeline/LMask2'
p117
sS'flat_filelist'
p118
g56
sS'db_file'
p119
S'/Volumes/DanaExternalMacbook/PhD_Thesis/SAMOS_Project/SAMOS_pipeline/LMask2.db'
p120
sS'science_filelist'
p121
g26
sbsb.