(iCreateFuelStructure
CreateFuelStructure
p0
(dp1
S'identify'
p2
(iCreateFuelStructure
CreateIdentifyStructure
p3
(dp4
S'linelist'
p5
g5
sS'lgfile'
p6
S'/Volumes/DanaExternalMacbook/PhD_Thesis/SAMOS_Project/SAMOS_pipeline/jupyterNB_tutorial/logfile'
p7
sS'db'
p8
S'/Volumes/DanaExternalMacbook/PhD_Thesis/SAMOS_Project/SAMOS_pipeline/jupyterNB_tutorial/database'
p9
sS'linelist_ext'
p10
S'linelist_full'
p11
sbsS'util'
p12
(iCreateFuelStructure
CreateUtilStructure
p13
(dp14
S'science'
p15
(iCreateFuelStructure
CreateFuelLoadfiles
p16
(dp17
S'transf_files'
p18
S''
p19
sS'master_file'
p20
g19
sS'raw_files'
p21
(S'/Volumes/DanaExternalMacbook/PhD_Thesis/SAMOS_Project/SAMOS_pipeline/LDSS3/2017-11-30/ccd8157c1.fits'
p22
S'/Volumes/DanaExternalMacbook/PhD_Thesis/SAMOS_Project/SAMOS_pipeline/LDSS3/2017-11-30/ccd8157c2.fits'
p23
S'/Volumes/DanaExternalMacbook/PhD_Thesis/SAMOS_Project/SAMOS_pipeline/LDSS3/2017-11-30/ccd8158c1.fits'
p24
S'/Volumes/DanaExternalMacbook/PhD_Thesis/SAMOS_Project/SAMOS_pipeline/LDSS3/2017-11-30/ccd8158c2.fits'
p25
tp26
sS'corr_files'
p27
(lp28
S'/Volumes/DanaExternalMacbook/PhD_Thesis/SAMOS_Project/SAMOS_pipeline/LMask2/intermediates/fbLMask28158.fits'
p29
aS'/Volumes/DanaExternalMacbook/PhD_Thesis/SAMOS_Project/SAMOS_pipeline/LMask2/intermediates/fbLMask28157.fits'
p30
asS'n_frames'
p31
I4
sbsS'intermediate_dir'
p32
S'/Volumes/DanaExternalMacbook/PhD_Thesis/SAMOS_Project/SAMOS_pipeline/LMask2/intermediates'
p33
sS'arc'
p34
(iCreateFuelStructure
CreateFuelLoadfiles
p35
(dp36
g18
g19
sg20
S'/Volumes/DanaExternalMacbook/PhD_Thesis/SAMOS_Project/SAMOS_pipeline/LMask2/master_arc.fits'
p37
sg21
(S'/Volumes/DanaExternalMacbook/PhD_Thesis/SAMOS_Project/SAMOS_pipeline/LDSS3/2017-11-30/ccd8159c1.fits'
p38
S'/Volumes/DanaExternalMacbook/PhD_Thesis/SAMOS_Project/SAMOS_pipeline/LDSS3/2017-11-30/ccd8159c2.fits'
p39
S'/Volumes/DanaExternalMacbook/PhD_Thesis/SAMOS_Project/SAMOS_pipeline/LDSS3/2017-11-30/ccd8160c1.fits'
p40
S'/Volumes/DanaExternalMacbook/PhD_Thesis/SAMOS_Project/SAMOS_pipeline/LDSS3/2017-11-30/ccd8160c2.fits'
p41
tp42
sg27
(lp43
S'/Volumes/DanaExternalMacbook/PhD_Thesis/SAMOS_Project/SAMOS_pipeline/LMask2/intermediates/fbLMask28159.fits'
p44
aS'/Volumes/DanaExternalMacbook/PhD_Thesis/SAMOS_Project/SAMOS_pipeline/LMask2/intermediates/fbLMask28160.fits'
p45
asg31
I4
sbsS'field'
p46
(iCreateFuelStructure
CreateFuelLoadfiles
p47
(dp48
g18
g19
sg20
g19
sg21
(S'/Volumes/DanaExternalMacbook/PhD_Thesis/SAMOS_Project/SAMOS_pipeline/LDSS3/2017-11-30/ccd8152c1.fits'
p49
S'/Volumes/DanaExternalMacbook/PhD_Thesis/SAMOS_Project/SAMOS_pipeline/LDSS3/2017-11-30/ccd8152c2.fits'
p50
tp51
sg27
(lp52
S'/Volumes/DanaExternalMacbook/PhD_Thesis/SAMOS_Project/SAMOS_pipeline/LMask2/intermediates/bLMask2field.fits'
p53
asg31
I2
sbsS'slitflat'
p54
(iCreateFuelStructure
CreateFuelLoadfiles
p55
(dp56
g18
g19
sg20
S'/Volumes/DanaExternalMacbook/PhD_Thesis/SAMOS_Project/SAMOS_pipeline/LMask2/intermediates/fbLMask2master_flat.fits'
p57
sg21
(S'/Volumes/DanaExternalMacbook/PhD_Thesis/SAMOS_Project/SAMOS_pipeline/LDSS3/2017-11-30/ccd8161c1.fits'
p58
S'/Volumes/DanaExternalMacbook/PhD_Thesis/SAMOS_Project/SAMOS_pipeline/LDSS3/2017-11-30/ccd8161c2.fits'
p59
S'/Volumes/DanaExternalMacbook/PhD_Thesis/SAMOS_Project/SAMOS_pipeline/LDSS3/2017-11-30/ccd8162c1.fits'
p60
S'/Volumes/DanaExternalMacbook/PhD_Thesis/SAMOS_Project/SAMOS_pipeline/LDSS3/2017-11-30/ccd8162c2.fits'
p61
S'/Volumes/DanaExternalMacbook/PhD_Thesis/SAMOS_Project/SAMOS_pipeline/LDSS3/2017-11-30/ccd8163c1.fits'
p62
S'/Volumes/DanaExternalMacbook/PhD_Thesis/SAMOS_Project/SAMOS_pipeline/LDSS3/2017-11-30/ccd8163c2.fits'
p63
tp64
sg27
(lp65
S'/Volumes/DanaExternalMacbook/PhD_Thesis/SAMOS_Project/SAMOS_pipeline/LMask2/intermediates/bLMask28163.fits'
p66
aS'/Volumes/DanaExternalMacbook/PhD_Thesis/SAMOS_Project/SAMOS_pipeline/LMask2/intermediates/bLMask28161.fits'
p67
aS'/Volumes/DanaExternalMacbook/PhD_Thesis/SAMOS_Project/SAMOS_pipeline/LMask2/intermediates/bLMask28162.fits'
p68
asg31
I6
sbsbsS'instrument'
p69
(iInitializeSAMOS
InitializeSAMOSInstrument
p70
(dp71
S'default_dark'
p72
g19
sS'default_pixelflat'
p73
g19
sS'gr_angle'
p74
g19
sS'dewar'
p75
g19
sS'linear_disp'
p76
F1.175
sS'd_alignrot'
p77
g19
sS'linearity_correction'
p78
(lp79
F0.0
aF1.0
aF4e-06
asS'dref'
p80
F0.0
sg69
S'LDSS3-C'
p81
sS'epoch'
p82
F2017.91567
sS'camera'
p83
g19
sS'scale_arc_per_mm'
p84
F12.6
sS'default_badpixel_mask'
p85
S'/Volumes/DanaExternalMacbook/PhD_Thesis/SAMOS_Project/SAMOS_pipeline/LDSS3/2017-11-30/SITE2'
p86
sS'ns'
p87
g19
sS'resolution_slit1arcsec'
p88
F0.0
sS'central_wavelength'
p89
I8000
sS'default_arc'
p90
g19
sS'pixel_scale'
p91
F0.188
sS'dewoff'
p92
g19
sS'default_illumflat'
p93
g19
sS'date'
p94
S'2017-12-01'
p95
sS'celestial_dec'
p96
S'-57:46:36.62'
p97
sS'hangle'
p98
F0.0
sS'temp'
p99
F20.0
sS'gr_order'
p100
g19
sS'mask'
p101
g19
sS'filter'
p102
S'OG590'
p103
sS'mode'
p104
g19
sS'trim_edges'
p105
F4.0
sS'readnoise'
p106
F4.67
sS'resolution'
p107
I1810
sS'grism'
p108
S'VPH-Red'
p109
sS'celestial_ra'
p110
S'06:15:51.721'
p111
sS'gain'
p112
g19
sbsS'slits'
p113
(lp114
sS'fuelsave_dir'
p115
S'/Volumes/DanaExternalMacbook/PhD_Thesis/SAMOS_Project/SAMOS_pipeline/stored_LMask2'
p116
sS'input'
p117
(iCreateInput
CreateInput
p118
(dp119
S'field_filelist'
p120
g51
sS'arc_filelist'
p121
g42
sS'working_dir'
p122
S'/Volumes/DanaExternalMacbook/PhD_Thesis/SAMOS_Project/SAMOS_pipeline'
p123
sS'mask_SMF'
p124
S'/Volumes/DanaExternalMacbook/PhD_Thesis/SAMOS_Project/SAMOS_pipeline/helper_files/LMask2.SMF'
p125
sS'slit_position_file'
p126
S'/Volumes/DanaExternalMacbook/PhD_Thesis/SAMOS_Project/SAMOS_pipeline/helper_files/LMask2_ycoords.txt'
p127
sS'slit_mask'
p128
S'/Volumes/DanaExternalMacbook/PhD_Thesis/SAMOS_Project/SAMOS_pipeline/LMask2'
p129
sS'flat_filelist'
p130
g64
sS'db_file'
p131
S'/Volumes/DanaExternalMacbook/PhD_Thesis/SAMOS_Project/SAMOS_pipeline/LMask2.db'
p132
sS'science_filelist'
p133
g26
sbsb.