(iCreateFuelStructure
CreateFuelStructure
p0
(dp1
S'identify'
p2
(iCreateFuelStructure
CreateIdentifyStructure
p3
(dp4
S'linelist'
p5
g5
sS'lgfile'
p6
S'/Volumes/DanaExternalMacbook/PhD_Thesis/SAMOS_Project/SAMOS_pipeline/jupyterNB_tutorial/logfile'
p7
sS'db'
p8
S'/Volumes/DanaExternalMacbook/PhD_Thesis/SAMOS_Project/SAMOS_pipeline/jupyterNB_tutorial/database'
p9
sS'linelist_ext'
p10
S'linelist_full'
p11
sbsS'util'
p12
(iCreateFuelStructure
CreateUtilStructure
p13
(dp14
S'science'
p15
(iCreateFuelStructure
CreateFuelLoadfiles
p16
(dp17
S'transf_files'
p18
S''
p19
sS'master_file'
p20
g19
sS'raw_files'
p21
(S'/Volumes/DanaExternalMacbook/PhD_Thesis/SAMOS_Project/SAMOS_pipeline/LDSS3/2017-11-30/ccd8157c1.fits'
p22
S'/Volumes/DanaExternalMacbook/PhD_Thesis/SAMOS_Project/SAMOS_pipeline/LDSS3/2017-11-30/ccd8157c2.fits'
p23
S'/Volumes/DanaExternalMacbook/PhD_Thesis/SAMOS_Project/SAMOS_pipeline/LDSS3/2017-11-30/ccd8158c1.fits'
p24
S'/Volumes/DanaExternalMacbook/PhD_Thesis/SAMOS_Project/SAMOS_pipeline/LDSS3/2017-11-30/ccd8158c2.fits'
p25
tp26
sS'corr_files'
p27
cnumpy.core.multiarray
_reconstruct
p28
(cnumpy
ndarray
p29
(I0
tp30
S'b'
p31
tp32
Rp33
(I1
(I32
tp34
cnumpy
dtype
p35
(S'S135'
p36
I0
I1
tp37
Rp38
(I3
S'|'
p39
NNNI135
I1
I0
tp40
bI00
S'/Volumes/DanaExternalMacbook/PhD_Thesis/SAMOS_Project/SAMOS_pipeline/LMask2/intermediates/slit_cutouts/slit_1/slit01_fbLMask28158.fits\x00/Volumes/DanaExternalMacbook/PhD_Thesis/SAMOS_Project/SAMOS_pipeline/LMask2/intermediates/slit_cutouts/slit_1/slit01_fbLMask28157.fits\x00/Volumes/DanaExternalMacbook/PhD_Thesis/SAMOS_Project/SAMOS_pipeline/LMask2/intermediates/slit_cutouts/slit_2/slit02_fbLMask28158.fits\x00/Volumes/DanaExternalMacbook/PhD_Thesis/SAMOS_Project/SAMOS_pipeline/LMask2/intermediates/slit_cutouts/slit_2/slit02_fbLMask28157.fits\x00/Volumes/DanaExternalMacbook/PhD_Thesis/SAMOS_Project/SAMOS_pipeline/LMask2/intermediates/slit_cutouts/slit_3/slit03_fbLMask28158.fits\x00/Volumes/DanaExternalMacbook/PhD_Thesis/SAMOS_Project/SAMOS_pipeline/LMask2/intermediates/slit_cutouts/slit_3/slit03_fbLMask28157.fits\x00/Volumes/DanaExternalMacbook/PhD_Thesis/SAMOS_Project/SAMOS_pipeline/LMask2/intermediates/slit_cutouts/slit_4/slit04_fbLMask28158.fits\x00/Volumes/DanaExternalMacbook/PhD_Thesis/SAMOS_Project/SAMOS_pipeline/LMask2/intermediates/slit_cutouts/slit_4/slit04_fbLMask28157.fits\x00/Volumes/DanaExternalMacbook/PhD_Thesis/SAMOS_Project/SAMOS_pipeline/LMask2/intermediates/slit_cutouts/slit_5/slit05_fbLMask28158.fits\x00/Volumes/DanaExternalMacbook/PhD_Thesis/SAMOS_Project/SAMOS_pipeline/LMask2/intermediates/slit_cutouts/slit_5/slit05_fbLMask28157.fits\x00/Volumes/DanaExternalMacbook/PhD_Thesis/SAMOS_Project/SAMOS_pipeline/LMask2/intermediates/slit_cutouts/slit_6/slit06_fbLMask28158.fits\x00/Volumes/DanaExternalMacbook/PhD_Thesis/SAMOS_Project/SAMOS_pipeline/LMask2/intermediates/slit_cutouts/slit_6/slit06_fbLMask28157.fits\x00/Volumes/DanaExternalMacbook/PhD_Thesis/SAMOS_Project/SAMOS_pipeline/LMask2/intermediates/slit_cutouts/slit_7/slit07_fbLMask28158.fits\x00/Volumes/DanaExternalMacbook/PhD_Thesis/SAMOS_Project/SAMOS_pipeline/LMask2/intermediates/slit_cutouts/slit_7/slit07_fbLMask28157.fits\x00/Volumes/DanaExternalMacbook/PhD_Thesis/SAMOS_Project/SAMOS_pipeline/LMask2/intermediates/slit_cutouts/slit_8/slit08_fbLMask28158.fits\x00/Volumes/DanaExternalMacbook/PhD_Thesis/SAMOS_Project/SAMOS_pipeline/LMask2/intermediates/slit_cutouts/slit_8/slit08_fbLMask28157.fits\x00/Volumes/DanaExternalMacbook/PhD_Thesis/SAMOS_Project/SAMOS_pipeline/LMask2/intermediates/slit_cutouts/slit_9/slit09_fbLMask28158.fits\x00/Volumes/DanaExternalMacbook/PhD_Thesis/SAMOS_Project/SAMOS_pipeline/LMask2/intermediates/slit_cutouts/slit_9/slit09_fbLMask28157.fits\x00/Volumes/DanaExternalMacbook/PhD_Thesis/SAMOS_Project/SAMOS_pipeline/LMask2/intermediates/slit_cutouts/slit_10/slit10_fbLMask28158.fits/Volumes/DanaExternalMacbook/PhD_Thesis/SAMOS_Project/SAMOS_pipeline/LMask2/intermediates/slit_cutouts/slit_10/slit10_fbLMask28157.fits/Volumes/DanaExternalMacbook/PhD_Thesis/SAMOS_Project/SAMOS_pipeline/LMask2/intermediates/slit_cutouts/slit_11/slit11_fbLMask28158.fits/Volumes/DanaExternalMacbook/PhD_Thesis/SAMOS_Project/SAMOS_pipeline/LMask2/intermediates/slit_cutouts/slit_11/slit11_fbLMask28157.fits/Volumes/DanaExternalMacbook/PhD_Thesis/SAMOS_Project/SAMOS_pipeline/LMask2/intermediates/slit_cutouts/slit_12/slit12_fbLMask28158.fits/Volumes/DanaExternalMacbook/PhD_Thesis/SAMOS_Project/SAMOS_pipeline/LMask2/intermediates/slit_cutouts/slit_12/slit12_fbLMask28157.fits/Volumes/DanaExternalMacbook/PhD_Thesis/SAMOS_Project/SAMOS_pipeline/LMask2/intermediates/slit_cutouts/slit_13/slit13_fbLMask28158.fits/Volumes/DanaExternalMacbook/PhD_Thesis/SAMOS_Project/SAMOS_pipeline/LMask2/intermediates/slit_cutouts/slit_13/slit13_fbLMask28157.fits/Volumes/DanaExternalMacbook/PhD_Thesis/SAMOS_Project/SAMOS_pipeline/LMask2/intermediates/slit_cutouts/slit_14/slit14_fbLMask28158.fits/Volumes/DanaExternalMacbook/PhD_Thesis/SAMOS_Project/SAMOS_pipeline/LMask2/intermediates/slit_cutouts/slit_14/slit14_fbLMask28157.fits/Volumes/DanaExternalMacbook/PhD_Thesis/SAMOS_Project/SAMOS_pipeline/LMask2/intermediates/slit_cutouts/slit_15/slit15_fbLMask28158.fits/Volumes/DanaExternalMacbook/PhD_Thesis/SAMOS_Project/SAMOS_pipeline/LMask2/intermediates/slit_cutouts/slit_15/slit15_fbLMask28157.fits/Volumes/DanaExternalMacbook/PhD_Thesis/SAMOS_Project/SAMOS_pipeline/LMask2/intermediates/slit_cutouts/slit_16/slit16_fbLMask28158.fits/Volumes/DanaExternalMacbook/PhD_Thesis/SAMOS_Project/SAMOS_pipeline/LMask2/intermediates/slit_cutouts/slit_16/slit16_fbLMask28157.fits'
p41
tp42
bsS'n_frames'
p43
I4
sbsS'intermediate_dir'
p44
S'/Volumes/DanaExternalMacbook/PhD_Thesis/SAMOS_Project/SAMOS_pipeline/LMask2/intermediates'
p45
sS'arc'
p46
(iCreateFuelStructure
CreateFuelLoadfiles
p47
(dp48
g18
g19
sg20
S'/Volumes/DanaExternalMacbook/PhD_Thesis/SAMOS_Project/SAMOS_pipeline/LMask2/master_arc.fits'
p49
sg21
(S'/Volumes/DanaExternalMacbook/PhD_Thesis/SAMOS_Project/SAMOS_pipeline/LDSS3/2017-11-30/ccd8159c1.fits'
p50
S'/Volumes/DanaExternalMacbook/PhD_Thesis/SAMOS_Project/SAMOS_pipeline/LDSS3/2017-11-30/ccd8159c2.fits'
p51
S'/Volumes/DanaExternalMacbook/PhD_Thesis/SAMOS_Project/SAMOS_pipeline/LDSS3/2017-11-30/ccd8160c1.fits'
p52
S'/Volumes/DanaExternalMacbook/PhD_Thesis/SAMOS_Project/SAMOS_pipeline/LDSS3/2017-11-30/ccd8160c2.fits'
p53
tp54
sg27
g28
(g29
(I0
tp55
g31
tp56
Rp57
(I1
(I32
tp58
g35
(S'S135'
p59
I0
I1
tp60
Rp61
(I3
S'|'
p62
NNNI135
I1
I0
tp63
bI00
S'/Volumes/DanaExternalMacbook/PhD_Thesis/SAMOS_Project/SAMOS_pipeline/LMask2/intermediates/slit_cutouts/slit_1/slit01_fbLMask28159.fits\x00/Volumes/DanaExternalMacbook/PhD_Thesis/SAMOS_Project/SAMOS_pipeline/LMask2/intermediates/slit_cutouts/slit_1/slit01_fbLMask28160.fits\x00/Volumes/DanaExternalMacbook/PhD_Thesis/SAMOS_Project/SAMOS_pipeline/LMask2/intermediates/slit_cutouts/slit_2/slit02_fbLMask28159.fits\x00/Volumes/DanaExternalMacbook/PhD_Thesis/SAMOS_Project/SAMOS_pipeline/LMask2/intermediates/slit_cutouts/slit_2/slit02_fbLMask28160.fits\x00/Volumes/DanaExternalMacbook/PhD_Thesis/SAMOS_Project/SAMOS_pipeline/LMask2/intermediates/slit_cutouts/slit_3/slit03_fbLMask28159.fits\x00/Volumes/DanaExternalMacbook/PhD_Thesis/SAMOS_Project/SAMOS_pipeline/LMask2/intermediates/slit_cutouts/slit_3/slit03_fbLMask28160.fits\x00/Volumes/DanaExternalMacbook/PhD_Thesis/SAMOS_Project/SAMOS_pipeline/LMask2/intermediates/slit_cutouts/slit_4/slit04_fbLMask28159.fits\x00/Volumes/DanaExternalMacbook/PhD_Thesis/SAMOS_Project/SAMOS_pipeline/LMask2/intermediates/slit_cutouts/slit_4/slit04_fbLMask28160.fits\x00/Volumes/DanaExternalMacbook/PhD_Thesis/SAMOS_Project/SAMOS_pipeline/LMask2/intermediates/slit_cutouts/slit_5/slit05_fbLMask28159.fits\x00/Volumes/DanaExternalMacbook/PhD_Thesis/SAMOS_Project/SAMOS_pipeline/LMask2/intermediates/slit_cutouts/slit_5/slit05_fbLMask28160.fits\x00/Volumes/DanaExternalMacbook/PhD_Thesis/SAMOS_Project/SAMOS_pipeline/LMask2/intermediates/slit_cutouts/slit_6/slit06_fbLMask28159.fits\x00/Volumes/DanaExternalMacbook/PhD_Thesis/SAMOS_Project/SAMOS_pipeline/LMask2/intermediates/slit_cutouts/slit_6/slit06_fbLMask28160.fits\x00/Volumes/DanaExternalMacbook/PhD_Thesis/SAMOS_Project/SAMOS_pipeline/LMask2/intermediates/slit_cutouts/slit_7/slit07_fbLMask28159.fits\x00/Volumes/DanaExternalMacbook/PhD_Thesis/SAMOS_Project/SAMOS_pipeline/LMask2/intermediates/slit_cutouts/slit_7/slit07_fbLMask28160.fits\x00/Volumes/DanaExternalMacbook/PhD_Thesis/SAMOS_Project/SAMOS_pipeline/LMask2/intermediates/slit_cutouts/slit_8/slit08_fbLMask28159.fits\x00/Volumes/DanaExternalMacbook/PhD_Thesis/SAMOS_Project/SAMOS_pipeline/LMask2/intermediates/slit_cutouts/slit_8/slit08_fbLMask28160.fits\x00/Volumes/DanaExternalMacbook/PhD_Thesis/SAMOS_Project/SAMOS_pipeline/LMask2/intermediates/slit_cutouts/slit_9/slit09_fbLMask28159.fits\x00/Volumes/DanaExternalMacbook/PhD_Thesis/SAMOS_Project/SAMOS_pipeline/LMask2/intermediates/slit_cutouts/slit_9/slit09_fbLMask28160.fits\x00/Volumes/DanaExternalMacbook/PhD_Thesis/SAMOS_Project/SAMOS_pipeline/LMask2/intermediates/slit_cutouts/slit_10/slit10_fbLMask28159.fits/Volumes/DanaExternalMacbook/PhD_Thesis/SAMOS_Project/SAMOS_pipeline/LMask2/intermediates/slit_cutouts/slit_10/slit10_fbLMask28160.fits/Volumes/DanaExternalMacbook/PhD_Thesis/SAMOS_Project/SAMOS_pipeline/LMask2/intermediates/slit_cutouts/slit_11/slit11_fbLMask28159.fits/Volumes/DanaExternalMacbook/PhD_Thesis/SAMOS_Project/SAMOS_pipeline/LMask2/intermediates/slit_cutouts/slit_11/slit11_fbLMask28160.fits/Volumes/DanaExternalMacbook/PhD_Thesis/SAMOS_Project/SAMOS_pipeline/LMask2/intermediates/slit_cutouts/slit_12/slit12_fbLMask28159.fits/Volumes/DanaExternalMacbook/PhD_Thesis/SAMOS_Project/SAMOS_pipeline/LMask2/intermediates/slit_cutouts/slit_12/slit12_fbLMask28160.fits/Volumes/DanaExternalMacbook/PhD_Thesis/SAMOS_Project/SAMOS_pipeline/LMask2/intermediates/slit_cutouts/slit_13/slit13_fbLMask28159.fits/Volumes/DanaExternalMacbook/PhD_Thesis/SAMOS_Project/SAMOS_pipeline/LMask2/intermediates/slit_cutouts/slit_13/slit13_fbLMask28160.fits/Volumes/DanaExternalMacbook/PhD_Thesis/SAMOS_Project/SAMOS_pipeline/LMask2/intermediates/slit_cutouts/slit_14/slit14_fbLMask28159.fits/Volumes/DanaExternalMacbook/PhD_Thesis/SAMOS_Project/SAMOS_pipeline/LMask2/intermediates/slit_cutouts/slit_14/slit14_fbLMask28160.fits/Volumes/DanaExternalMacbook/PhD_Thesis/SAMOS_Project/SAMOS_pipeline/LMask2/intermediates/slit_cutouts/slit_15/slit15_fbLMask28159.fits/Volumes/DanaExternalMacbook/PhD_Thesis/SAMOS_Project/SAMOS_pipeline/LMask2/intermediates/slit_cutouts/slit_15/slit15_fbLMask28160.fits/Volumes/DanaExternalMacbook/PhD_Thesis/SAMOS_Project/SAMOS_pipeline/LMask2/intermediates/slit_cutouts/slit_16/slit16_fbLMask28159.fits/Volumes/DanaExternalMacbook/PhD_Thesis/SAMOS_Project/SAMOS_pipeline/LMask2/intermediates/slit_cutouts/slit_16/slit16_fbLMask28160.fits'
p64
tp65
bsg43
I4
sbsS'field'
p66
(iCreateFuelStructure
CreateFuelLoadfiles
p67
(dp68
g18
g19
sg20
g19
sg21
(S'/Volumes/DanaExternalMacbook/PhD_Thesis/SAMOS_Project/SAMOS_pipeline/LDSS3/2017-11-30/ccd8152c1.fits'
p69
S'/Volumes/DanaExternalMacbook/PhD_Thesis/SAMOS_Project/SAMOS_pipeline/LDSS3/2017-11-30/ccd8152c2.fits'
p70
tp71
sg27
(lp72
S'/Volumes/DanaExternalMacbook/PhD_Thesis/SAMOS_Project/SAMOS_pipeline/LMask2/intermediates/bLMask2field.fits'
p73
asg43
I2
sbsS'slitflat'
p74
(iCreateFuelStructure
CreateFuelLoadfiles
p75
(dp76
g18
g19
sg20
S'/Volumes/DanaExternalMacbook/PhD_Thesis/SAMOS_Project/SAMOS_pipeline/LMask2/intermediates/fbLMask2master_flat.fits'
p77
sg21
(S'/Volumes/DanaExternalMacbook/PhD_Thesis/SAMOS_Project/SAMOS_pipeline/LDSS3/2017-11-30/ccd8161c1.fits'
p78
S'/Volumes/DanaExternalMacbook/PhD_Thesis/SAMOS_Project/SAMOS_pipeline/LDSS3/2017-11-30/ccd8161c2.fits'
p79
S'/Volumes/DanaExternalMacbook/PhD_Thesis/SAMOS_Project/SAMOS_pipeline/LDSS3/2017-11-30/ccd8162c1.fits'
p80
S'/Volumes/DanaExternalMacbook/PhD_Thesis/SAMOS_Project/SAMOS_pipeline/LDSS3/2017-11-30/ccd8162c2.fits'
p81
S'/Volumes/DanaExternalMacbook/PhD_Thesis/SAMOS_Project/SAMOS_pipeline/LDSS3/2017-11-30/ccd8163c1.fits'
p82
S'/Volumes/DanaExternalMacbook/PhD_Thesis/SAMOS_Project/SAMOS_pipeline/LDSS3/2017-11-30/ccd8163c2.fits'
p83
tp84
sg27
g28
(g29
(I0
tp85
g31
tp86
Rp87
(I1
(I16
tp88
g35
(S'S142'
p89
I0
I1
tp90
Rp91
(I3
S'|'
p92
NNNI142
I1
I0
tp93
bI00
S'/Volumes/DanaExternalMacbook/PhD_Thesis/SAMOS_Project/SAMOS_pipeline/LMask2/intermediates/slit_cutouts/slit_1/slit01_fbLMask2master_flat.fits\x00/Volumes/DanaExternalMacbook/PhD_Thesis/SAMOS_Project/SAMOS_pipeline/LMask2/intermediates/slit_cutouts/slit_2/slit02_fbLMask2master_flat.fits\x00/Volumes/DanaExternalMacbook/PhD_Thesis/SAMOS_Project/SAMOS_pipeline/LMask2/intermediates/slit_cutouts/slit_3/slit03_fbLMask2master_flat.fits\x00/Volumes/DanaExternalMacbook/PhD_Thesis/SAMOS_Project/SAMOS_pipeline/LMask2/intermediates/slit_cutouts/slit_4/slit04_fbLMask2master_flat.fits\x00/Volumes/DanaExternalMacbook/PhD_Thesis/SAMOS_Project/SAMOS_pipeline/LMask2/intermediates/slit_cutouts/slit_5/slit05_fbLMask2master_flat.fits\x00/Volumes/DanaExternalMacbook/PhD_Thesis/SAMOS_Project/SAMOS_pipeline/LMask2/intermediates/slit_cutouts/slit_6/slit06_fbLMask2master_flat.fits\x00/Volumes/DanaExternalMacbook/PhD_Thesis/SAMOS_Project/SAMOS_pipeline/LMask2/intermediates/slit_cutouts/slit_7/slit07_fbLMask2master_flat.fits\x00/Volumes/DanaExternalMacbook/PhD_Thesis/SAMOS_Project/SAMOS_pipeline/LMask2/intermediates/slit_cutouts/slit_8/slit08_fbLMask2master_flat.fits\x00/Volumes/DanaExternalMacbook/PhD_Thesis/SAMOS_Project/SAMOS_pipeline/LMask2/intermediates/slit_cutouts/slit_9/slit09_fbLMask2master_flat.fits\x00/Volumes/DanaExternalMacbook/PhD_Thesis/SAMOS_Project/SAMOS_pipeline/LMask2/intermediates/slit_cutouts/slit_10/slit10_fbLMask2master_flat.fits/Volumes/DanaExternalMacbook/PhD_Thesis/SAMOS_Project/SAMOS_pipeline/LMask2/intermediates/slit_cutouts/slit_11/slit11_fbLMask2master_flat.fits/Volumes/DanaExternalMacbook/PhD_Thesis/SAMOS_Project/SAMOS_pipeline/LMask2/intermediates/slit_cutouts/slit_12/slit12_fbLMask2master_flat.fits/Volumes/DanaExternalMacbook/PhD_Thesis/SAMOS_Project/SAMOS_pipeline/LMask2/intermediates/slit_cutouts/slit_13/slit13_fbLMask2master_flat.fits/Volumes/DanaExternalMacbook/PhD_Thesis/SAMOS_Project/SAMOS_pipeline/LMask2/intermediates/slit_cutouts/slit_14/slit14_fbLMask2master_flat.fits/Volumes/DanaExternalMacbook/PhD_Thesis/SAMOS_Project/SAMOS_pipeline/LMask2/intermediates/slit_cutouts/slit_15/slit15_fbLMask2master_flat.fits/Volumes/DanaExternalMacbook/PhD_Thesis/SAMOS_Project/SAMOS_pipeline/LMask2/intermediates/slit_cutouts/slit_16/slit16_fbLMask2master_flat.fits'
p94
tp95
bsg43
I6
sbsbsS'instrument'
p96
(iInitializeSAMOS
InitializeSAMOSInstrument
p97
(dp98
S'default_dark'
p99
g19
sS'default_pixelflat'
p100
g19
sS'gr_angle'
p101
g19
sS'dewar'
p102
g19
sS'linear_disp'
p103
F1.175
sS'd_alignrot'
p104
g19
sS'linearity_correction'
p105
(lp106
F0.0
aF1.0
aF4e-06
asS'dref'
p107
F0.0
sg96
S'LDSS3-C'
p108
sS'epoch'
p109
F2017.91567
sS'camera'
p110
g19
sS'scale_arc_per_mm'
p111
F12.6
sS'default_badpixel_mask'
p112
S'/Volumes/DanaExternalMacbook/PhD_Thesis/SAMOS_Project/SAMOS_pipeline/LDSS3/2017-11-30/SITE2'
p113
sS'ns'
p114
g19
sS'resolution_slit1arcsec'
p115
F0.0
sS'central_wavelength'
p116
I8000
sS'default_arc'
p117
g19
sS'pixel_scale'
p118
F0.188
sS'dewoff'
p119
g19
sS'default_illumflat'
p120
g19
sS'date'
p121
S'2017-12-01'
p122
sS'celestial_dec'
p123
S'-57:46:36.62'
p124
sS'hangle'
p125
F0.0
sS'temp'
p126
F20.0
sS'gr_order'
p127
g19
sS'mask'
p128
g19
sS'filter'
p129
S'OG590'
p130
sS'mode'
p131
g19
sS'trim_edges'
p132
F4.0
sS'readnoise'
p133
F4.67
sS'resolution'
p134
I1810
sS'grism'
p135
S'VPH-Red'
p136
sS'celestial_ra'
p137
S'06:15:51.721'
p138
sS'gain'
p139
g19
sbsS'slits'
p140
(lp141
(iCreateSlitStructure
CreateSlitStructure
p142
(dp143
S'cent_lambda'
p144
F8294.0
sS'skip'
p145
I0
sS'position_angle'
p146
Fnan
sS'number'
p147
I1
sg46
g28
(g29
(I0
tp148
g31
tp149
Rp150
(I1
(I2
tp151
g35
(S'S24'
p152
I0
I1
tp153
Rp154
(I3
S'|'
p155
NNNI24
I1
I0
tp156
bI00
S'slit01_fbLMask28159.fitsslit01_fbLMask28160.fits'
p157
tp158
bsS'width_arcsec'
p159
F0.0
sS'approx_top'
p160
F0.0
sS'angle'
p161
Fnan
sS'obj_dec'
p162
S'-57:45:50.42'
p163
sS'blen_mm'
p164
F0.0
sS'y_mm'
p165
F6.51
sS'approx_bottom'
p166
F0.0
sS'obj_ra'
p167
S'06:16:09.638'
p168
sS'width_mm'
p169
Fnan
sS'alen_mm'
p170
F0.0
sS'approx_R'
p171
F0.0
sS'obj'
p172
S'obj11980'
p173
sg15
g28
(g29
(I0
tp174
g31
tp175
Rp176
(I1
(I2
tp177
g35
(S'S24'
p178
I0
I1
tp179
Rp180
(I3
S'|'
p181
NNNI24
I1
I0
tp182
bI00
S'slit01_fbLMask28158.fitsslit01_fbLMask28157.fits'
p183
tp184
bsS'range_lambda0'
p185
(lp186
F7150.0
aF8850.0
asS'x_mm'
p187
F51.781
sS'approx_target'
p188
F0.0
sS'flats'
p189
g28
(g29
(I0
tp190
g31
tp191
Rp192
(I1
(I1
tp193
g35
(S'S31'
p194
I0
I1
tp195
Rp196
(I3
S'|'
p197
NNNI31
I1
I0
tp198
bI00
S'slit01_fbLMask2master_flat.fits'
p199
tp200
bsba(iCreateSlitStructure
CreateSlitStructure
p201
(dp202
g144
F8294.0
sg145
I0
sg146
Fnan
sg147
I2
sg46
g28
(g29
(I0
tp203
g31
tp204
Rp205
(I1
(I2
tp206
g35
(S'S24'
p207
I0
I1
tp208
Rp209
(I3
S'|'
p210
NNNI24
I1
I0
tp211
bI00
S'slit02_fbLMask28159.fitsslit02_fbLMask28160.fits'
p212
tp213
bsg159
F0.0
sg160
F0.0
sg161
Fnan
sg162
S'-57:45:48.70'
p214
sg164
F0.0
sg165
F4.779
sg166
F0.0
sg167
S'06:16:08.624'
p215
sg169
Fnan
sg170
F0.0
sg171
F0.0
sg172
S'obj21903'
p216
sg15
g28
(g29
(I0
tp217
g31
tp218
Rp219
(I1
(I2
tp220
g35
(S'S24'
p221
I0
I1
tp222
Rp223
(I3
S'|'
p224
NNNI24
I1
I0
tp225
bI00
S'slit02_fbLMask28158.fitsslit02_fbLMask28157.fits'
p226
tp227
bsg185
(lp228
F7150.0
aF8850.0
asg187
F49.486
sg188
F0.0
sg189
g28
(g29
(I0
tp229
g31
tp230
Rp231
(I1
(I1
tp232
g35
(S'S31'
p233
I0
I1
tp234
Rp235
(I3
S'|'
p236
NNNI31
I1
I0
tp237
bI00
S'slit02_fbLMask2master_flat.fits'
p238
tp239
bsba(iCreateSlitStructure
CreateSlitStructure
p240
(dp241
g144
F8294.0
sg145
I0
sg146
Fnan
sg147
I3
sg46
g28
(g29
(I0
tp242
g31
tp243
Rp244
(I1
(I2
tp245
g35
(S'S24'
p246
I0
I1
tp247
Rp248
(I3
S'|'
p249
NNNI24
I1
I0
tp250
bI00
S'slit03_fbLMask28159.fitsslit03_fbLMask28160.fits'
p251
tp252
bsg159
F0.0
sg160
F0.0
sg161
Fnan
sg162
S'-57:46:04.73'
p253
sg164
F0.0
sg165
F9.542
sg166
F0.0
sg167
S'06:16:08.395'
p254
sg169
Fnan
sg170
F0.0
sg171
F0.0
sg172
S'obj11333'
p255
sg15
g28
(g29
(I0
tp256
g31
tp257
Rp258
(I1
(I2
tp259
g35
(S'S24'
p260
I0
I1
tp261
Rp262
(I3
S'|'
p263
NNNI24
I1
I0
tp264
bI00
S'slit03_fbLMask28158.fitsslit03_fbLMask28157.fits'
p265
tp266
bsg185
(lp267
F7150.0
aF8850.0
asg187
F46.558
sg188
F0.0
sg189
g28
(g29
(I0
tp268
g31
tp269
Rp270
(I1
(I1
tp271
g35
(S'S31'
p272
I0
I1
tp273
Rp274
(I3
S'|'
p275
NNNI31
I1
I0
tp276
bI00
S'slit03_fbLMask2master_flat.fits'
p277
tp278
bsba(iCreateSlitStructure
CreateSlitStructure
p279
(dp280
g144
F8294.0
sg145
I0
sg146
Fnan
sg147
I4
sg46
g28
(g29
(I0
tp281
g31
tp282
Rp283
(I1
(I2
tp284
g35
(S'S24'
p285
I0
I1
tp286
Rp287
(I3
S'|'
p288
NNNI24
I1
I0
tp289
bI00
S'slit04_fbLMask28159.fitsslit04_fbLMask28160.fits'
p290
tp291
bsg159
F0.0
sg160
F0.0
sg161
Fnan
sg162
S'-57:46:07.40'
p292
sg164
F0.0
sg165
F8.288
sg166
F0.0
sg167
S'06:16:06.613'
p293
sg169
Fnan
sg170
F0.0
sg171
F0.0
sg172
S'obj11067'
p294
sg15
g28
(g29
(I0
tp295
g31
tp296
Rp297
(I1
(I2
tp298
g35
(S'S24'
p299
I0
I1
tp300
Rp301
(I3
S'|'
p302
NNNI24
I1
I0
tp303
bI00
S'slit04_fbLMask28158.fitsslit04_fbLMask28157.fits'
p304
tp305
bsg185
(lp306
F7150.0
aF8850.0
asg187
F41.69
sg188
F0.0
sg189
g28
(g29
(I0
tp307
g31
tp308
Rp309
(I1
(I1
tp310
g35
(S'S31'
p311
I0
I1
tp312
Rp313
(I3
S'|'
p314
NNNI31
I1
I0
tp315
bI00
S'slit04_fbLMask2master_flat.fits'
p316
tp317
bsba(iCreateSlitStructure
CreateSlitStructure
p318
(dp319
g144
F8294.0
sg145
I0
sg146
Fnan
sg147
I5
sg46
g28
(g29
(I0
tp320
g31
tp321
Rp322
(I1
(I2
tp323
g35
(S'S24'
p324
I0
I1
tp325
Rp326
(I3
S'|'
p327
NNNI24
I1
I0
tp328
bI00
S'slit05_fbLMask28159.fitsslit05_fbLMask28160.fits'
p329
tp330
bsg159
F0.0
sg160
F0.0
sg161
Fnan
sg162
S'-57:46:35.62'
p331
sg164
F0.0
sg165
F14.916
sg166
F0.0
sg167
S'06:16:04.712'
p332
sg169
Fnan
sg170
F0.0
sg171
F0.0
sg172
S'obj9451'
p333
sg15
g28
(g29
(I0
tp334
g31
tp335
Rp336
(I1
(I2
tp337
g35
(S'S24'
p338
I0
I1
tp339
Rp340
(I3
S'|'
p341
NNNI24
I1
I0
tp342
bI00
S'slit05_fbLMask28158.fitsslit05_fbLMask28157.fits'
p343
tp344
bsg185
(lp345
F7150.0
aF8850.0
asg187
F32.774
sg188
F0.0
sg189
g28
(g29
(I0
tp346
g31
tp347
Rp348
(I1
(I1
tp349
g35
(S'S31'
p350
I0
I1
tp351
Rp352
(I3
S'|'
p353
NNNI31
I1
I0
tp354
bI00
S'slit05_fbLMask2master_flat.fits'
p355
tp356
bsba(iCreateSlitStructure
CreateSlitStructure
p357
(dp358
g144
F8294.0
sg145
I0
sg146
Fnan
sg147
I6
sg46
g28
(g29
(I0
tp359
g31
tp360
Rp361
(I1
(I2
tp362
g35
(S'S24'
p363
I0
I1
tp364
Rp365
(I3
S'|'
p366
NNNI24
I1
I0
tp367
bI00
S'slit06_fbLMask28159.fitsslit06_fbLMask28160.fits'
p368
tp369
bsg159
F0.0
sg160
F0.0
sg161
Fnan
sg162
S'-57:46:48.77'
p370
sg164
F0.0
sg165
F17.027
sg166
F0.0
sg167
S'06:16:02.992'
p371
sg169
Fnan
sg170
F0.0
sg171
F0.0
sg172
S'obj8743'
p372
sg15
g28
(g29
(I0
tp373
g31
tp374
Rp375
(I1
(I2
tp376
g35
(S'S24'
p377
I0
I1
tp378
Rp379
(I3
S'|'
p380
NNNI24
I1
I0
tp381
bI00
S'slit06_fbLMask28158.fitsslit06_fbLMask28157.fits'
p382
tp383
bsg185
(lp384
F7150.0
aF8850.0
asg187
F26.526
sg188
F0.0
sg189
g28
(g29
(I0
tp385
g31
tp386
Rp387
(I1
(I1
tp388
g35
(S'S31'
p389
I0
I1
tp390
Rp391
(I3
S'|'
p392
NNNI31
I1
I0
tp393
bI00
S'slit06_fbLMask2master_flat.fits'
p394
tp395
bsba(iCreateSlitStructure
CreateSlitStructure
p396
(dp397
g144
F8294.0
sg145
I0
sg146
Fnan
sg147
I7
sg46
g28
(g29
(I0
tp398
g31
tp399
Rp400
(I1
(I2
tp401
g35
(S'S24'
p402
I0
I1
tp403
Rp404
(I3
S'|'
p405
NNNI24
I1
I0
tp406
bI00
S'slit07_fbLMask28159.fitsslit07_fbLMask28160.fits'
p407
tp408
bsg159
F0.0
sg160
F0.0
sg161
Fnan
sg162
S'-57:46:42.20'
p409
sg164
F0.0
sg165
F12.577
sg166
F0.0
sg167
S'06:16:00.957'
p410
sg169
Fnan
sg170
F0.0
sg171
F0.0
sg172
S'obj11671'
p411
sg15
g28
(g29
(I0
tp412
g31
tp413
Rp414
(I1
(I2
tp415
g35
(S'S24'
p416
I0
I1
tp417
Rp418
(I3
S'|'
p419
NNNI24
I1
I0
tp420
bI00
S'slit07_fbLMask28158.fitsslit07_fbLMask28157.fits'
p421
tp422
bsg185
(lp423
F7150.0
aF8850.0
asg187
F22.379
sg188
F0.0
sg189
g28
(g29
(I0
tp424
g31
tp425
Rp426
(I1
(I1
tp427
g35
(S'S31'
p428
I0
I1
tp429
Rp430
(I3
S'|'
p431
NNNI31
I1
I0
tp432
bI00
S'slit07_fbLMask2master_flat.fits'
p433
tp434
bsba(iCreateSlitStructure
CreateSlitStructure
p435
(dp436
g144
F8294.0
sg145
I0
sg146
Fnan
sg147
I8
sg46
g28
(g29
(I0
tp437
g31
tp438
Rp439
(I1
(I2
tp440
g35
(S'S24'
p441
I0
I1
tp442
Rp443
(I3
S'|'
p444
NNNI24
I1
I0
tp445
bI00
S'slit08_fbLMask28159.fitsslit08_fbLMask28160.fits'
p446
tp447
bsg159
F0.0
sg160
F0.0
sg161
Fnan
sg162
S'-57:46:51.49'
p448
sg164
F0.0
sg165
F13.231
sg166
F0.0
sg167
S'06:15:59.027'
p449
sg169
Fnan
sg170
F0.0
sg171
F0.0
sg172
S'obj9108'
p450
sg15
g28
(g29
(I0
tp451
g31
tp452
Rp453
(I1
(I2
tp454
g35
(S'S24'
p455
I0
I1
tp456
Rp457
(I3
S'|'
p458
NNNI24
I1
I0
tp459
bI00
S'slit08_fbLMask28158.fitsslit08_fbLMask28157.fits'
p460
tp461
bsg185
(lp462
F7150.0
aF8850.0
asg187
F16.171
sg188
F0.0
sg189
g28
(g29
(I0
tp463
g31
tp464
Rp465
(I1
(I1
tp466
g35
(S'S31'
p467
I0
I1
tp468
Rp469
(I3
S'|'
p470
NNNI31
I1
I0
tp471
bI00
S'slit08_fbLMask2master_flat.fits'
p472
tp473
bsba(iCreateSlitStructure
CreateSlitStructure
p474
(dp475
g144
F8294.0
sg145
I0
sg146
Fnan
sg147
I9
sg46
g28
(g29
(I0
tp476
g31
tp477
Rp478
(I1
(I0
tp479
g35
(S'f8'
p480
I0
I1
tp481
Rp482
(I3
S'<'
p483
NNNI-1
I-1
I0
tp484
bI00
g19
tp485
bsg159
F0.0
sg160
F0.0
sg161
Fnan
sg162
S'-57:46:30.52'
p486
sg164
F0.0
sg165
F4.383
sg166
F0.0
sg167
S'06:15:57.096'
p487
sg169
Fnan
sg170
F0.0
sg171
F0.0
sg172
S'obj9714'
p488
sg15
g28
(g29
(I0
tp489
g31
tp490
Rp491
(I1
(I0
tp492
g482
I00
g19
tp493
bsg185
(lp494
F7150.0
aF8850.0
asg187
F14.395
sg188
F0.0
sg189
g28
(g29
(I0
tp495
g31
tp496
Rp497
(I1
(I0
tp498
g482
I00
g19
tp499
bsba(iCreateSlitStructure
CreateSlitStructure
p500
(dp501
g144
F8294.0
sg145
I0
sg146
Fnan
sg147
I10
sg46
g28
(g29
(I0
tp502
g31
tp503
Rp504
(I1
(I2
tp505
g35
(S'S24'
p506
I0
I1
tp507
Rp508
(I3
S'|'
p509
NNNI24
I1
I0
tp510
bI00
S'slit10_fbLMask28159.fitsslit10_fbLMask28160.fits'
p511
tp512
bsg159
F0.0
sg160
F0.0
sg161
Fnan
sg162
S'-57:46:33.37'
p513
sg164
F0.0
sg165
F3.773
sg166
F0.0
sg167
S'06:15:55.812'
p514
sg169
Fnan
sg170
F0.0
sg171
F0.0
sg172
S'obj9584'
p515
sg15
g28
(g29
(I0
tp516
g31
tp517
Rp518
(I1
(I2
tp519
g35
(S'S24'
p520
I0
I1
tp521
Rp522
(I3
S'|'
p523
NNNI24
I1
I0
tp524
bI00
S'slit10_fbLMask28158.fitsslit10_fbLMask28157.fits'
p525
tp526
bsg185
(lp527
F7150.0
aF8850.0
asg187
F10.752
sg188
F0.0
sg189
g28
(g29
(I0
tp528
g31
tp529
Rp530
(I1
(I1
tp531
g35
(S'S31'
p532
I0
I1
tp533
Rp534
(I3
S'|'
p535
NNNI31
I1
I0
tp536
bI00
S'slit10_fbLMask2master_flat.fits'
p537
tp538
bsba(iCreateSlitStructure
CreateSlitStructure
p539
(dp540
g144
F8294.0
sg145
I0
sg146
Fnan
sg147
I11
sg46
g28
(g29
(I0
tp541
g31
tp542
Rp543
(I1
(I2
tp544
g35
(S'S24'
p545
I0
I1
tp546
Rp547
(I3
S'|'
p548
NNNI24
I1
I0
tp549
bI00
S'slit11_fbLMask28159.fitsslit11_fbLMask28160.fits'
p550
tp551
bsg159
F0.0
sg160
F0.0
sg161
Fnan
sg162
S'-57:46:39.74'
p552
sg164
F0.0
sg165
F5.015
sg166
F0.0
sg167
S'06:15:55.165'
p553
sg169
Fnan
sg170
F0.0
sg171
F0.0
sg172
S'obj9274'
p554
sg15
g28
(g29
(I0
tp555
g31
tp556
Rp557
(I1
(I2
tp558
g35
(S'S24'
p559
I0
I1
tp560
Rp561
(I3
S'|'
p562
NNNI24
I1
I0
tp563
bI00
S'slit11_fbLMask28158.fitsslit11_fbLMask28157.fits'
p564
tp565
bsg185
(lp566
F7150.0
aF8850.0
asg187
F8.194
sg188
F0.0
sg189
g28
(g29
(I0
tp567
g31
tp568
Rp569
(I1
(I1
tp570
g35
(S'S31'
p571
I0
I1
tp572
Rp573
(I3
S'|'
p574
NNNI31
I1
I0
tp575
bI00
S'slit11_fbLMask2master_flat.fits'
p576
tp577
bsba(iCreateSlitStructure
CreateSlitStructure
p578
(dp579
g144
F8294.0
sg145
I0
sg146
Fnan
sg147
I12
sg46
g28
(g29
(I0
tp580
g31
tp581
Rp582
(I1
(I2
tp583
g35
(S'S24'
p584
I0
I1
tp585
Rp586
(I3
S'|'
p587
NNNI24
I1
I0
tp588
bI00
S'slit12_fbLMask28159.fitsslit12_fbLMask28160.fits'
p589
tp590
bsg159
F0.0
sg160
F0.0
sg161
Fnan
sg162
S'-57:46:45.02'
p591
sg164
F0.0
sg165
F5.89
sg166
F0.0
sg167
S'06:15:54.497'
p592
sg169
Fnan
sg170
F0.0
sg171
F0.0
sg172
S'obj8946'
p593
sg15
g28
(g29
(I0
tp594
g31
tp595
Rp596
(I1
(I2
tp597
g35
(S'S24'
p598
I0
I1
tp599
Rp600
(I3
S'|'
p601
NNNI24
I1
I0
tp602
bI00
S'slit12_fbLMask28158.fitsslit12_fbLMask28157.fits'
p603
tp604
bsg185
(lp605
F7150.0
aF8850.0
asg187
F5.742
sg188
F0.0
sg189
g28
(g29
(I0
tp606
g31
tp607
Rp608
(I1
(I1
tp609
g35
(S'S31'
p610
I0
I1
tp611
Rp612
(I3
S'|'
p613
NNNI31
I1
I0
tp614
bI00
S'slit12_fbLMask2master_flat.fits'
p615
tp616
bsba(iCreateSlitStructure
CreateSlitStructure
p617
(dp618
g144
F8294.0
sg145
I0
sg146
Fnan
sg147
I13
sg46
g28
(g29
(I0
tp619
g31
tp620
Rp621
(I1
(I2
tp622
g35
(S'S24'
p623
I0
I1
tp624
Rp625
(I3
S'|'
p626
NNNI24
I1
I0
tp627
bI00
S'slit13_fbLMask28159.fitsslit13_fbLMask28160.fits'
p628
tp629
bsg159
F0.0
sg160
F0.0
sg161
Fnan
sg162
S'-57:46:44.68'
p630
sg164
F0.0
sg165
F4.554
sg166
F0.0
sg167
S'06:15:53.448'
p631
sg169
Fnan
sg170
F0.0
sg171
F0.0
sg172
S'obj8991'
p632
sg15
g28
(g29
(I0
tp633
g31
tp634
Rp635
(I1
(I2
tp636
g35
(S'S24'
p637
I0
I1
tp638
Rp639
(I3
S'|'
p640
NNNI24
I1
I0
tp641
bI00
S'slit13_fbLMask28158.fitsslit13_fbLMask28157.fits'
p642
tp643
bsg185
(lp644
F7150.0
aF8850.0
asg187
F3.157
sg188
F0.0
sg189
g28
(g29
(I0
tp645
g31
tp646
Rp647
(I1
(I1
tp648
g35
(S'S31'
p649
I0
I1
tp650
Rp651
(I3
S'|'
p652
NNNI31
I1
I0
tp653
bI00
S'slit13_fbLMask2master_flat.fits'
p654
tp655
bsba(iCreateSlitStructure
CreateSlitStructure
p656
(dp657
g144
F8294.0
sg145
I0
sg146
Fnan
sg147
I14
sg46
g28
(g29
(I0
tp658
g31
tp659
Rp660
(I1
(I2
tp661
g35
(S'S24'
p662
I0
I1
tp663
Rp664
(I3
S'|'
p665
NNNI24
I1
I0
tp666
bI00
S'slit14_fbLMask28159.fitsslit14_fbLMask28160.fits'
p667
tp668
bsg159
F0.0
sg160
F0.0
sg161
Fnan
sg162
S'-57:47:14.69'
p669
sg164
F0.0
sg165
F8.21
sg166
F0.0
sg167
S'06:15:48.521'
p670
sg169
Fnan
sg170
F0.0
sg171
F0.0
sg172
S'obj7343'
p671
sg15
g28
(g29
(I0
tp672
g31
tp673
Rp674
(I1
(I2
tp675
g35
(S'S24'
p676
I0
I1
tp677
Rp678
(I3
S'|'
p679
NNNI24
I1
I0
tp680
bI00
S'slit14_fbLMask28158.fitsslit14_fbLMask28157.fits'
p681
tp682
bsg185
(lp683
F7150.0
aF8850.0
asg187
F-13.612
sg188
F0.0
sg189
g28
(g29
(I0
tp684
g31
tp685
Rp686
(I1
(I1
tp687
g35
(S'S31'
p688
I0
I1
tp689
Rp690
(I3
S'|'
p691
NNNI31
I1
I0
tp692
bI00
S'slit14_fbLMask2master_flat.fits'
p693
tp694
bsba(iCreateSlitStructure
CreateSlitStructure
p695
(dp696
g144
F8294.0
sg145
I0
sg146
Fnan
sg147
I15
sg46
g28
(g29
(I0
tp697
g31
tp698
Rp699
(I1
(I2
tp700
g35
(S'S24'
p701
I0
I1
tp702
Rp703
(I3
S'|'
p704
NNNI24
I1
I0
tp705
bI00
S'slit15_fbLMask28159.fitsslit15_fbLMask28160.fits'
p706
tp707
bsg159
F0.0
sg160
F0.0
sg161
Fnan
sg162
S'-57:47:58.47'
p708
sg164
F0.0
sg165
F20.302
sg166
F0.0
sg167
S'06:15:47.103'
p709
sg169
Fnan
sg170
F0.0
sg171
F0.0
sg172
S'obj5382'
p710
sg15
g28
(g29
(I0
tp711
g31
tp712
Rp713
(I1
(I2
tp714
g35
(S'S24'
p715
I0
I1
tp716
Rp717
(I3
S'|'
p718
NNNI24
I1
I0
tp719
bI00
S'slit15_fbLMask28158.fitsslit15_fbLMask28157.fits'
p720
tp721
bsg185
(lp722
F7150.0
aF8850.0
asg187
F-23.581
sg188
F0.0
sg189
g28
(g29
(I0
tp723
g31
tp724
Rp725
(I1
(I1
tp726
g35
(S'S31'
p727
I0
I1
tp728
Rp729
(I3
S'|'
p730
NNNI31
I1
I0
tp731
bI00
S'slit15_fbLMask2master_flat.fits'
p732
tp733
bsba(iCreateSlitStructure
CreateSlitStructure
p734
(dp735
g144
F8294.0
sg145
I0
sg146
Fnan
sg147
I16
sg46
g28
(g29
(I0
tp736
g31
tp737
Rp738
(I1
(I2
tp739
g35
(S'S24'
p740
I0
I1
tp741
Rp742
(I3
S'|'
p743
NNNI24
I1
I0
tp744
bI00
S'slit16_fbLMask28159.fitsslit16_fbLMask28160.fits'
p745
tp746
bsg159
F0.0
sg160
F0.0
sg161
Fnan
sg162
S'-57:47:46.05'
p747
sg164
F0.0
sg165
F14.307
sg166
F0.0
sg167
S'06:15:45.313'
p748
sg169
Fnan
sg170
F0.0
sg171
F0.0
sg172
S'obj5925'
p749
sg15
g28
(g29
(I0
tp750
g31
tp751
Rp752
(I1
(I2
tp753
g35
(S'S24'
p754
I0
I1
tp755
Rp756
(I3
S'|'
p757
NNNI24
I1
I0
tp758
bI00
S'slit16_fbLMask28158.fitsslit16_fbLMask28157.fits'
p759
tp760
bsg185
(lp761
F7150.0
aF8850.0
asg187
F-26.258
sg188
F0.0
sg189
g28
(g29
(I0
tp762
g31
tp763
Rp764
(I1
(I1
tp765
g35
(S'S31'
p766
I0
I1
tp767
Rp768
(I3
S'|'
p769
NNNI31
I1
I0
tp770
bI00
S'slit16_fbLMask2master_flat.fits'
p771
tp772
bsbasS'fuelsave_dir'
p773
S'/Volumes/DanaExternalMacbook/PhD_Thesis/SAMOS_Project/SAMOS_pipeline/stored_LMask2'
p774
sS'input'
p775
(iCreateInput
CreateInput
p776
(dp777
S'field_filelist'
p778
g71
sS'arc_filelist'
p779
g54
sS'working_dir'
p780
S'/Volumes/DanaExternalMacbook/PhD_Thesis/SAMOS_Project/SAMOS_pipeline'
p781
sS'mask_SMF'
p782
S'/Volumes/DanaExternalMacbook/PhD_Thesis/SAMOS_Project/SAMOS_pipeline/helper_files/LMask2.SMF'
p783
sS'slit_position_file'
p784
S'/Volumes/DanaExternalMacbook/PhD_Thesis/SAMOS_Project/SAMOS_pipeline/helper_files/LMask2_ycoords.txt'
p785
sS'slit_mask'
p786
S'/Volumes/DanaExternalMacbook/PhD_Thesis/SAMOS_Project/SAMOS_pipeline/LMask2'
p787
sS'flat_filelist'
p788
g84
sS'db_file'
p789
S'/Volumes/DanaExternalMacbook/PhD_Thesis/SAMOS_Project/SAMOS_pipeline/LMask2.db'
p790
sS'science_filelist'
p791
g26
sbsb.